target datalayout = "e-m:e-p270:32:32-p271:32:32-p272:64:64-i64:64-i128:128-f80:128-n8:16:32:64-S128"
target triple = "x86_64-pc-linux-gnu"

%struct.GetBitContext = type { ptr, ptr, i32, i32, i32 }

; Function Attrs: alwaysinline nounwind willreturn memory(none) uwtable
define internal i32 @av_bswap32(i32 noundef %0) #6 {
  %2 = alloca i32, align 4
  store i32 %0, ptr %2, align 4, !tbaa !44
  %3 = load i32, ptr %2, align 4, !tbaa !44
  %4 = shl i32 %3, 8
  %5 = and i32 %4, 65280
  %6 = load i32, ptr %2, align 4, !tbaa !44
  %7 = lshr i32 %6, 8
  %8 = and i32 %7, 255
  %9 = or i32 %5, %8
  %10 = shl i32 %9, 16
  %11 = load i32, ptr %2, align 4, !tbaa !44
  %12 = lshr i32 %11, 16
  %13 = shl i32 %12, 8
  %14 = and i32 %13, 65280
  %15 = load i32, ptr %2, align 4, !tbaa !44
  %16 = lshr i32 %15, 16
  %17 = lshr i32 %16, 8
  %18 = and i32 %17, 255
  %19 = or i32 %14, %18
  %20 = or i32 %10, %19
  ret i32 %20
}

; Function Attrs: inlinehint nounwind uwtable
define internal i32 @get_bits(ptr noundef %0, i32 noundef %1) #5 {
  %3 = alloca ptr, align 8
  %4 = alloca i32, align 4
  %5 = alloca i32, align 4
  %6 = alloca i32, align 4
  %7 = alloca i32, align 4
  %8 = alloca i32, align 4
  store ptr %0, ptr %3, align 8, !tbaa !153
  store i32 %1, ptr %4, align 4, !tbaa !44
  call void @llvm.lifetime.start.p0(i64 4, ptr %5) #13
  call void @llvm.lifetime.start.p0(i64 4, ptr %6) #13
  %9 = load ptr, ptr %3, align 8, !tbaa !153
  %10 = getelementptr inbounds nuw %struct.GetBitContext, ptr %9, i32 0, i32 2
  %11 = load i32, ptr %10, align 8, !tbaa !155
  store i32 %11, ptr %6, align 4, !tbaa !44
  call void @llvm.lifetime.start.p0(i64 4, ptr %7) #13
  call void @llvm.lifetime.start.p0(i64 4, ptr %8) #13
  %12 = load ptr, ptr %3, align 8, !tbaa !153
  %13 = getelementptr inbounds nuw %struct.GetBitContext, ptr %12, i32 0, i32 4
  %14 = load i32, ptr %13, align 8, !tbaa !156
  store i32 %14, ptr %8, align 4, !tbaa !44
  %15 = load ptr, ptr %3, align 8, !tbaa !153
  %16 = getelementptr inbounds nuw %struct.GetBitContext, ptr %15, i32 0, i32 0
  %17 = load ptr, ptr %16, align 8, !tbaa !158
  %18 = load i32, ptr %6, align 4, !tbaa !44
  %19 = lshr i32 %18, 3
  %20 = zext i32 %19 to i64
  %21 = getelementptr inbounds nuw i8, ptr %17, i64 %20
  %22 = load i32, ptr %21, align 1, !tbaa !159
  %23 = call i32 @av_bswap32(i32 noundef %22) #15
  %24 = load i32, ptr %6, align 4, !tbaa !44
  %25 = and i32 %24, 7
  %26 = shl i32 %23, %25
  %27 = lshr i32 %26, 0
  store i32 %27, ptr %7, align 4, !tbaa !44
  %28 = load i32, ptr %7, align 4, !tbaa !44
  %29 = load i32, ptr %4, align 4, !tbaa !44
  %30 = sub nsw i32 32, %29
  %31 = lshr i32 %28, %30
  store i32 %31, ptr %5, align 4, !tbaa !44
  %32 = load i32, ptr %8, align 4, !tbaa !44
  %33 = load i32, ptr %6, align 4, !tbaa !44
  %34 = load i32, ptr %4, align 4, !tbaa !44
  %35 = add i32 %33, %34
  %36 = icmp ugt i32 %32, %35
  br i1 %36, label %37, label %41

37:                                               ; preds = %2
  %38 = load i32, ptr %6, align 4, !tbaa !44
  %39 = load i32, ptr %4, align 4, !tbaa !44
  %40 = add i32 %38, %39
  br label %43

41:                                               ; preds = %2
  %42 = load i32, ptr %8, align 4, !tbaa !44
  br label %43

43:                                               ; preds = %41, %37
  %44 = phi i32 [ %40, %37 ], [ %42, %41 ]
  store i32 %44, ptr %6, align 4, !tbaa !44
  %45 = load i32, ptr %6, align 4, !tbaa !44
  %46 = load ptr, ptr %3, align 8, !tbaa !153
  %47 = getelementptr inbounds nuw %struct.GetBitContext, ptr %46, i32 0, i32 2
  store i32 %45, ptr %47, align 8, !tbaa !155
  %48 = load i32, ptr %5, align 4, !tbaa !44
  call void @llvm.lifetime.end.p0(i64 4, ptr %8) #13
  call void @llvm.lifetime.end.p0(i64 4, ptr %7) #13
  call void @llvm.lifetime.end.p0(i64 4, ptr %6) #13
  call void @llvm.lifetime.end.p0(i64 4, ptr %5) #13
  ret i32 %48
}

; Function Attrs: inlinehint nounwind uwtable
define internal i32 @get_bits_count(ptr noundef %0) #5 {
  %2 = alloca ptr, align 8
  store ptr %0, ptr %2, align 8, !tbaa !153
  %3 = load ptr, ptr %2, align 8, !tbaa !153
  %4 = getelementptr inbounds nuw %struct.GetBitContext, ptr %3, i32 0, i32 2
  %5 = load i32, ptr %4, align 8, !tbaa !155
  ret i32 %5
}

; Function Attrs: inlinehint nounwind uwtable
define internal i32 @get_bits_long(ptr noundef %0, i32 noundef %1) #5 {
  %3 = alloca i32, align 4
  %4 = alloca ptr, align 8
  %5 = alloca i32, align 4
  %6 = alloca i32, align 4
  store ptr %0, ptr %4, align 8, !tbaa !153
  store i32 %1, ptr %5, align 4, !tbaa !44
  %7 = load i32, ptr %5, align 4, !tbaa !44
  %8 = icmp ne i32 %7, 0
  br i1 %8, label %10, label %9

9:                                                ; preds = %2
  store i32 0, ptr %3, align 4
  br label %29

10:                                               ; preds = %2
  %11 = load i32, ptr %5, align 4, !tbaa !44
  %12 = icmp sle i32 %11, 25
  br i1 %12, label %13, label %17

13:                                               ; preds = %10
  %14 = load ptr, ptr %4, align 8, !tbaa !153
  %15 = load i32, ptr %5, align 4, !tbaa !44
  %16 = call i32 @get_bits(ptr noundef %14, i32 noundef %15)
  store i32 %16, ptr %3, align 4
  br label %29

17:                                               ; preds = %10
  call void @llvm.lifetime.start.p0(i64 4, ptr %6) #13
  %18 = load ptr, ptr %4, align 8, !tbaa !153
  %19 = call i32 @get_bits(ptr noundef %18, i32 noundef 16)
  %20 = load i32, ptr %5, align 4, !tbaa !44
  %21 = sub nsw i32 %20, 16
  %22 = shl i32 %19, %21
  store i32 %22, ptr %6, align 4, !tbaa !44
  %23 = load i32, ptr %6, align 4, !tbaa !44
  %24 = load ptr, ptr %4, align 8, !tbaa !153
  %25 = load i32, ptr %5, align 4, !tbaa !44
  %26 = sub nsw i32 %25, 16
  %27 = call i32 @get_bits(ptr noundef %24, i32 noundef %26)
  %28 = or i32 %23, %27
  store i32 %28, ptr %3, align 4
  call void @llvm.lifetime.end.p0(i64 4, ptr %6) #13
  br label %29

29:                                               ; preds = %17, %13, %9
  %30 = load i32, ptr %3, align 4
  ret i32 %30
}

; Function Attrs: inlinehint nounwind uwtable
define internal i32 @get_bits1(ptr noundef %0) #5 {
  %2 = alloca ptr, align 8
  %3 = alloca i32, align 4
  %4 = alloca i8, align 1
  store ptr %0, ptr %2, align 8, !tbaa !153
  call void @llvm.lifetime.start.p0(i64 4, ptr %3) #13
  %5 = load ptr, ptr %2, align 8, !tbaa !153
  %6 = getelementptr inbounds nuw %struct.GetBitContext, ptr %5, i32 0, i32 2
  %7 = load i32, ptr %6, align 8, !tbaa !155
  store i32 %7, ptr %3, align 4, !tbaa !44
  call void @llvm.lifetime.start.p0(i64 1, ptr %4) #13
  %8 = load ptr, ptr %2, align 8, !tbaa !153
  %9 = getelementptr inbounds nuw %struct.GetBitContext, ptr %8, i32 0, i32 0
  %10 = load ptr, ptr %9, align 8, !tbaa !158
  %11 = load i32, ptr %3, align 4, !tbaa !44
  %12 = lshr i32 %11, 3
  %13 = zext i32 %12 to i64
  %14 = getelementptr inbounds nuw i8, ptr %10, i64 %13
  %15 = load i8, ptr %14, align 1, !tbaa !159
  store i8 %15, ptr %4, align 1, !tbaa !159
  %16 = load i32, ptr %3, align 4, !tbaa !44
  %17 = and i32 %16, 7
  %18 = load i8, ptr %4, align 1, !tbaa !159
  %19 = zext i8 %18 to i32
  %20 = shl i32 %19, %17
  %21 = trunc i32 %20 to i8
  store i8 %21, ptr %4, align 1, !tbaa !159
  %22 = load i8, ptr %4, align 1, !tbaa !159
  %23 = zext i8 %22 to i32
  %24 = ashr i32 %23, 7
  %25 = trunc i32 %24 to i8
  store i8 %25, ptr %4, align 1, !tbaa !159
  %26 = load ptr, ptr %2, align 8, !tbaa !153
  %27 = getelementptr inbounds nuw %struct.GetBitContext, ptr %26, i32 0, i32 2
  %28 = load i32, ptr %27, align 8, !tbaa !155
  %29 = load ptr, ptr %2, align 8, !tbaa !153
  %30 = getelementptr inbounds nuw %struct.GetBitContext, ptr %29, i32 0, i32 4
  %31 = load i32, ptr %30, align 8, !tbaa !156
  %32 = icmp slt i32 %28, %31
  br i1 %32, label %33, label %36

33:                                               ; preds = %1
  %34 = load i32, ptr %3, align 4, !tbaa !44
  %35 = add i32 %34, 1
  store i32 %35, ptr %3, align 4, !tbaa !44
  br label %36

36:                                               ; preds = %33, %1
  %37 = load i32, ptr %3, align 4, !tbaa !44
  %38 = load ptr, ptr %2, align 8, !tbaa !153
  %39 = getelementptr inbounds nuw %struct.GetBitContext, ptr %38, i32 0, i32 2
  store i32 %37, ptr %39, align 8, !tbaa !155
  %40 = load i8, ptr %4, align 1, !tbaa !159
  %41 = zext i8 %40 to i32
  call void @llvm.lifetime.end.p0(i64 1, ptr %4) #13
  call void @llvm.lifetime.end.p0(i64 4, ptr %3) #13
  ret i32 %41
}

; Function Attrs: inlinehint nounwind uwtable
define internal i32 @get_unary(ptr noundef %0, i32 noundef %1, i32 noundef %2) #5 {
  %4 = alloca ptr, align 8
  %5 = alloca i32, align 4
  %6 = alloca i32, align 4
  %7 = alloca i32, align 4
  store ptr %0, ptr %4, align 8, !tbaa !153
  store i32 %1, ptr %5, align 4, !tbaa !44
  store i32 %2, ptr %6, align 4, !tbaa !44
  call void @llvm.lifetime.start.p0(i64 4, ptr %7) #13
  store i32 0, ptr %7, align 4, !tbaa !44
  br label %8

8:                                                ; preds = %20, %3
  %9 = load i32, ptr %7, align 4, !tbaa !44
  %10 = load i32, ptr %6, align 4, !tbaa !44
  %11 = icmp slt i32 %9, %10
  br i1 %11, label %12, label %17

12:                                               ; preds = %8
  %13 = load ptr, ptr %4, align 8, !tbaa !153
  %14 = call i32 @get_bits1(ptr noundef %13)
  %15 = load i32, ptr %5, align 4, !tbaa !44
  %16 = icmp ne i32 %14, %15
  br label %17

17:                                               ; preds = %12, %8
  %18 = phi i1 [ false, %8 ], [ %16, %12 ]
  br i1 %18, label %19, label %23

19:                                               ; preds = %17
  br label %20

20:                                               ; preds = %19
  %21 = load i32, ptr %7, align 4, !tbaa !44
  %22 = add nsw i32 %21, 1
  store i32 %22, ptr %7, align 4, !tbaa !44
  br label %8, !llvm.loop !244

23:                                               ; preds = %17
  %24 = load i32, ptr %7, align 4, !tbaa !44
  call void @llvm.lifetime.end.p0(i64 4, ptr %7) #13
  ret i32 %24
}

; Function Attrs: inlinehint nounwind uwtable
define internal i32 @get_bits_left(ptr noundef %0) #5 {
  %2 = alloca ptr, align 8
  store ptr %0, ptr %2, align 8, !tbaa !153
  %3 = load ptr, ptr %2, align 8, !tbaa !153
  %4 = getelementptr inbounds nuw %struct.GetBitContext, ptr %3, i32 0, i32 3
  %5 = load i32, ptr %4, align 4, !tbaa !157
  %6 = load ptr, ptr %2, align 8, !tbaa !153
  %7 = call i32 @get_bits_count(ptr noundef %6)
  %8 = sub nsw i32 %5, %7
  ret i32 %8
}

; Function Attrs: nounwind uwtable
define internal i32 @decode_rice(ptr noundef %0, i32 noundef %1) #1 {
  %3 = alloca ptr, align 8
  %4 = alloca i32, align 4
  %5 = alloca i32, align 4
  %6 = alloca i32, align 4
  %7 = alloca i32, align 4
  store ptr %0, ptr %3, align 8, !tbaa !153
  store i32 %1, ptr %4, align 4, !tbaa !44
  call void @llvm.lifetime.start.p0(i64 4, ptr %5) #13
  %8 = load ptr, ptr %3, align 8, !tbaa !153
  %9 = call i32 @get_bits_left(ptr noundef %8)
  %10 = load i32, ptr %4, align 4, !tbaa !44
  %11 = sub i32 %9, %10
  store i32 %11, ptr %5, align 4, !tbaa !44
  call void @llvm.lifetime.start.p0(i64 4, ptr %6) #13
  %12 = load ptr, ptr %3, align 8, !tbaa !153
  %13 = load i32, ptr %5, align 4, !tbaa !44
  %14 = call i32 @get_unary(ptr noundef %12, i32 noundef 0, i32 noundef %13)
  store i32 %14, ptr %6, align 4, !tbaa !44
  call void @llvm.lifetime.start.p0(i64 4, ptr %7) #13
  %15 = load i32, ptr %4, align 4, !tbaa !44
  %16 = icmp ne i32 %15, 0
  br i1 %16, label %17, label %20

17:                                               ; preds = %2
  %18 = load ptr, ptr %3, align 8, !tbaa !153
  %19 = call i32 @get_bits1(ptr noundef %18)
  br label %26

20:                                               ; preds = %2
  %21 = load i32, ptr %6, align 4, !tbaa !44
  %22 = and i32 %21, 1
  %23 = icmp ne i32 %22, 0
  %24 = xor i1 %23, true
  %25 = zext i1 %24 to i32
  br label %26

26:                                               ; preds = %20, %17
  %27 = phi i32 [ %19, %17 ], [ %25, %20 ]
  store i32 %27, ptr %7, align 4, !tbaa !44
  %28 = load i32, ptr %4, align 4, !tbaa !44
  %29 = icmp ugt i32 %28, 1
  br i1 %29, label %30, label %41

30:                                               ; preds = %26
  %31 = load i32, ptr %4, align 4, !tbaa !44
  %32 = sub i32 %31, 1
  %33 = load i32, ptr %6, align 4, !tbaa !44
  %34 = shl i32 %33, %32
  store i32 %34, ptr %6, align 4, !tbaa !44
  %35 = load ptr, ptr %3, align 8, !tbaa !153
  %36 = load i32, ptr %4, align 4, !tbaa !44
  %37 = sub i32 %36, 1
  %38 = call i32 @get_bits_long(ptr noundef %35, i32 noundef %37)
  %39 = load i32, ptr %6, align 4, !tbaa !44
  %40 = add i32 %39, %38
  store i32 %40, ptr %6, align 4, !tbaa !44
  br label %48

41:                                               ; preds = %26
  %42 = load i32, ptr %4, align 4, !tbaa !44
  %43 = icmp ne i32 %42, 0
  br i1 %43, label %47, label %44

44:                                               ; preds = %41
  %45 = load i32, ptr %6, align 4, !tbaa !44
  %46 = lshr i32 %45, 1
  store i32 %46, ptr %6, align 4, !tbaa !44
  br label %47

47:                                               ; preds = %44, %41
  br label %48

48:                                               ; preds = %47, %30
  %49 = load i32, ptr %7, align 4, !tbaa !44
  %50 = icmp ne i32 %49, 0
  br i1 %50, label %51, label %53

51:                                               ; preds = %48
  %52 = load i32, ptr %6, align 4, !tbaa !44
  br label %56

53:                                               ; preds = %48
  %54 = load i32, ptr %6, align 4, !tbaa !44
  %55 = xor i32 %54, -1
  br label %56

56:                                               ; preds = %53, %51
  %57 = phi i32 [ %52, %51 ], [ %55, %53 ]
  call void @llvm.lifetime.end.p0(i64 4, ptr %7) #13
  call void @llvm.lifetime.end.p0(i64 4, ptr %6) #13
  call void @llvm.lifetime.end.p0(i64 4, ptr %5) #13
  ret i32 %57
}