; Function Attrs: nofree norecurse nosync nounwind memory(read, argmem: readwrite, inaccessiblemem: none) uwtable
define internal fastcc i32 @decode_rice(ptr noundef captures(none) %0, i32 noundef %1) unnamed_addr #12 {
  %3 = getelementptr i8, ptr %0, i64 16
  %.val = load i32, ptr %3, align 8, !tbaa !99
  %4 = getelementptr i8, ptr %0, i64 20
  %.val20 = load i32, ptr %4, align 4, !tbaa !96
  %5 = add i32 %.val, %1
  %6 = sub i32 %.val20, %5
  %7 = icmp sgt i32 %6, 0
  br i1 %7, label %.lr.ph.i, label %get_unary.exit

.lr.ph.i:                                         ; preds = %2
  %8 = load ptr, ptr %0, align 8, !tbaa !95
  %9 = getelementptr inbounds nuw i8, ptr %0, i64 24
  %10 = load i32, ptr %9, align 8, !tbaa !97
  br label %11

11:                                               ; preds = %22, %.lr.ph.i
  %spec.select.i8.i = phi i32 [ %.val, %.lr.ph.i ], [ %spec.select.i.i, %22 ]
  %.05.i = phi i32 [ 0, %.lr.ph.i ], [ %23, %22 ]
  %12 = lshr i32 %spec.select.i8.i, 3
  %13 = zext nneg i32 %12 to i64
  %14 = getelementptr inbounds nuw i8, ptr %8, i64 %13
  %15 = load i8, ptr %14, align 1, !tbaa !108
  %16 = icmp slt i32 %spec.select.i8.i, %10
  %17 = zext i1 %16 to i32
  %spec.select.i.i = add i32 %spec.select.i8.i, %17
  %18 = zext i8 %15 to i32
  %19 = and i32 %spec.select.i8.i, 7
  store i32 %spec.select.i.i, ptr %3, align 8, !tbaa !99
  %20 = lshr exact i32 128, %19
  %21 = and i32 %20, %18
  %.not.i = icmp eq i32 %21, 0
  br i1 %.not.i, label %get_unary.exit, label %22

22:                                               ; preds = %11
  %23 = add nuw nsw i32 %.05.i, 1
  %exitcond.not.i = icmp eq i32 %23, %6
  br i1 %exitcond.not.i, label %get_unary.exit, label %11, !llvm.loop !138

get_unary.exit:                                   ; preds = %11, %22, %2
  %24 = phi i32 [ %.val, %2 ], [ %spec.select.i.i, %22 ], [ %spec.select.i.i, %11 ]
  %.0.lcssa.i = phi i32 [ 0, %2 ], [ %.05.i, %11 ], [ %6, %22 ]
  %.not = icmp eq i32 %1, 0
  br i1 %.not, label %.thread, label %27

.thread:                                          ; preds = %get_unary.exit
  %25 = and i32 %.0.lcssa.i, 1
  %26 = xor i32 %25, 1
  br label %77

27:                                               ; preds = %get_unary.exit
  %28 = load ptr, ptr %0, align 8, !tbaa !95
  %29 = lshr i32 %24, 3
  %30 = zext nneg i32 %29 to i64
  %31 = getelementptr inbounds nuw i8, ptr %28, i64 %30
  %32 = load i8, ptr %31, align 1, !tbaa !108
  %33 = getelementptr inbounds nuw i8, ptr %0, i64 24
  %34 = load i32, ptr %33, align 8, !tbaa !97
  %35 = icmp slt i32 %24, %34
  %36 = zext i1 %35 to i32
  %spec.select.i = add i32 %24, %36
  %37 = zext i8 %32 to i32
  %38 = and i32 %24, 7
  %39 = shl nuw nsw i32 %37, %38
  %40 = lshr i32 %39, 7
  store i32 %spec.select.i, ptr %3, align 8, !tbaa !99
  %41 = and i32 %40, 1
  %.not22 = icmp eq i32 %1, 1
  br i1 %.not22, label %77, label %42

42:                                               ; preds = %27
  %43 = add i32 %1, -1
  %44 = shl i32 %.0.lcssa.i, %43
  %45 = icmp slt i32 %43, 26
  %46 = lshr i32 %spec.select.i, 3
  %47 = zext nneg i32 %46 to i64
  %48 = getelementptr inbounds nuw i8, ptr %28, i64 %47
  %49 = load i32, ptr %48, align 1, !tbaa !108
  %50 = tail call i32 @llvm.bswap.i32(i32 %49)
  %51 = and i32 %spec.select.i, 7
  %52 = shl i32 %50, %51
  br i1 %45, label %53, label %58

53:                                               ; preds = %42
  %54 = sub i32 33, %1
  %55 = lshr i32 %52, %54
  %56 = add i32 %spec.select.i, %43
  %57 = tail call i32 @llvm.umin.i32(i32 %34, i32 %56)
  br label %get_bits_long.exit

58:                                               ; preds = %42
  %59 = lshr i32 %52, 16
  %60 = add i32 %spec.select.i, 16
  %61 = tail call i32 @llvm.umin.i32(i32 %34, i32 %60)
  store i32 %61, ptr %3, align 8, !tbaa !99
  %62 = add i32 %1, -17
  %63 = shl i32 %59, %62
  %64 = lshr i32 %61, 3
  %65 = zext nneg i32 %64 to i64
  %66 = getelementptr inbounds nuw i8, ptr %28, i64 %65
  %67 = load i32, ptr %66, align 1, !tbaa !108
  %68 = tail call i32 @llvm.bswap.i32(i32 %67)
  %69 = and i32 %61, 7
  %70 = shl i32 %68, %69
  %71 = sub i32 49, %1
  %72 = lshr i32 %70, %71
  %73 = add i32 %61, %62
  %74 = tail call i32 @llvm.umin.i32(i32 %34, i32 %73)
  %75 = or i32 %72, %63
  br label %get_bits_long.exit

get_bits_long.exit:                               ; preds = %53, %58
  %.sink = phi i32 [ %57, %53 ], [ %74, %58 ]
  %.0.i = phi i32 [ %55, %53 ], [ %75, %58 ]
  store i32 %.sink, ptr %3, align 8, !tbaa !99
  %76 = add i32 %.0.i, %44
  br label %80

77:                                               ; preds = %.thread, %27
  %78 = phi i32 [ %26, %.thread ], [ %41, %27 ]
  %79 = zext i1 %.not to i32
  %spec.select = lshr i32 %.0.lcssa.i, %79
  br label %80

80:                                               ; preds = %77, %get_bits_long.exit
  %81 = phi i32 [ %41, %get_bits_long.exit ], [ %78, %77 ]
  %.0 = phi i32 [ %76, %get_bits_long.exit ], [ %spec.select, %77 ]
  %.not19 = icmp eq i32 %81, 0
  %82 = sext i1 %.not19 to i32
  %83 = xor i32 %.0, %82
  ret i32 %83
}